(dp0
S'345435'
p1
(dp2
S'eiActivePeriod'
p3
(dp4
S'x_eiRampUp'
p5
S'PT4H'
p6
sS'x_eiRecovery'
p7
S'PT5H'
p8
sS'x_eiNotification'
p9
S'PT3H'
p10
sS'components'
p11
NsS'duration'
p12
S'PT1H'
p13
sS'dtstart'
p14
S'2001-12-31T12:00:00'
p15
sS'tolerance'
p16
S'PT2H'
p17
ssS'eiEventSignals'
p18
(lp19
(dp20
S'intervals'
p21
(lp22
(dp23
g12
S'PT1H'
p24
sS'signalPayload'
p25
S'0.0'
p26
sS'uid'
p27
S'xcal:text'
p28
sasS'currentValue'
p29
S'0.0'
p30
sS'signalID'
p31
S'ei:signalID'
p32
sS'signalType'
p33
S'delta'
p34
sS'signalName'
p35
S'ei:signalName'
p36
sasS'eventDescriptor'
p37
(dp38
S'eventID'
p39
g1
sS'vtnComment'
p40
S'ei:vtnComment'
p41
sS'createdDateTime'
p42
S'2001-12-31T12:00:00'
p43
sS'testEvent'
p44
S'ei:testEvent'
p45
sS'modificationNumber'
p46
S'0'
p47
sS'priority'
p48
g47
sS'eventStatus'
p49
S'none'
p50
sS'eiMarketContext'
p51
S'http://tempuri.org'
p52
ssS'eiTarget'
p53
(dp54
S'resourceID'
p55
S'ei:resourceID'
p56
sS'partyID'
p57
S'ei:partyID'
p58
sS'groupID'
p59
S'ei:groupID'
p60
sS'venID'
p61
S'ei:venID'
p62
sssS'12345'
p63
(dp64
g3
(dp65
g5
S'PT5H'
p66
sg7
S'PT10H'
p67
sg9
S'PT3H'
p68
sg11
Nsg12
S'PT1H'
p69
sg14
S'2001-12-31T12:00:00'
p70
sg16
S'PT2H'
p71
ssg18
(lp72
(dp73
g21
(lp74
(dp75
g12
S'PT12H'
p76
sg25
S'0.0'
p77
sg27
S'xcal:text'
p78
sasg29
S'0.0'
p79
sg31
S'ei:signalID'
p80
sg33
S'delta'
p81
sg35
S'ei:signalName'
p82
sa(dp83
g21
(lp84
(dp85
g12
S'PT12H'
p86
sg25
S'0.0'
p87
sg27
S'xcal:text'
p88
sa(dp89
g12
S'PT2H'
p90
sg25
S'0.0'
p91
sg27
S'xcal:text1'
p92
sasg29
S'0.0'
p93
sg31
S'ei:signalID'
p94
sg33
S'delta'
p95
sg35
S'ei:signalName'
p96
sasg37
(dp97
g39
S'12345'
p98
sg40
S'ei:vtnComment'
p99
sg42
S'2001-12-31T12:00:00'
p100
sg46
S'0'
p101
sg44
S'ei:testEvent'
p102
sg48
g101
sg49
S'none'
p103
sg51
S'http://tempuri.org'
p104
ssg53
(dp105
g55
S'ei:resourceID'
p106
sg57
S'ei:partyID'
p107
sg59
S'ei:groupID'
p108
sg61
S'ei:venID'
p109
sssS'ei:eventID'
p110
(dp111
g3
(dp112
g5
S'PT5H'
p113
sg7
S'PT10H'
p114
sg9
S'PT3H'
p115
sg11
Nsg12
S'PT1H'
p116
sg14
S'2001-12-31T12:00:00'
p117
sg16
S'PT2H'
p118
ssg18
(lp119
(dp120
g21
(lp121
(dp122
g12
S'PT12H'
p123
sg25
S'0.0'
p124
sg27
S'xcal:text'
p125
sasg29
S'0.0'
p126
sg31
S'ei:signalID'
p127
sg33
S'delta'
p128
sg35
S'ei:signalName'
p129
sasg37
(dp130
g39
S'ei:eventID'
p131
sg40
S'ei:vtnComment'
p132
sg42
S'2001-12-31T12:00:00'
p133
sg46
S'0'
p134
sg44
S'ei:testEvent'
p135
sg48
g134
sg49
S'none'
p136
sg51
S'http://tempuri.org'
p137
ssg53
(dp138
g55
S'ei:resourceID'
p139
sg57
S'ei:partyID'
p140
sg59
S'ei:groupID'
p141
sg61
S'ei:venID'
p142
sss.