(dp0
S'12345'
p1
(dp2
S'eiActivePeriod'
p3
(dp4
S'x_eiRampUp'
p5
S'PT5H'
p6
sS'x_eiRecovery'
p7
S'PT10H'
p8
sS'x_eiNotification'
p9
S'PT3H'
p10
sS'components'
p11
NsS'duration'
p12
S'PT1H'
p13
sS'dtstart'
p14
S'2001-12-31T12:00:00'
p15
sS'tolerance'
p16
S'PT2H'
p17
ssS'eiEventSignals'
p18
(lp19
(dp20
S'intervals'
p21
(lp22
(dp23
g12
S'PT12H'
p24
sS'signalPayload'
p25
S'0.0'
p26
sS'uid'
p27
S'xcal:text'
p28
sasS'currentValue'
p29
S'0.0'
p30
sS'signalID'
p31
S'ei:signalID'
p32
sS'signalType'
p33
S'delta'
p34
sS'signalName'
p35
S'ei:signalName'
p36
sa(dp37
g21
(lp38
(dp39
g12
S'PT12H'
p40
sg25
S'0.0'
p41
sg27
S'xcal:text'
p42
sa(dp43
g12
S'PT2H'
p44
sg25
S'0.0'
p45
sg27
S'xcal:text1'
p46
sasg29
S'0.0'
p47
sg31
S'ei:signalID'
p48
sg33
S'delta'
p49
sg35
S'ei:signalName'
p50
sasS'eventDescriptor'
p51
(dp52
S'eventID'
p53
S'12345'
p54
sS'vtnComment'
p55
S'ei:vtnComment'
p56
sS'createdDateTime'
p57
S'2001-12-31T12:00:00'
p58
sS'testEvent'
p59
S'ei:testEvent'
p60
sS'modificationNumber'
p61
S'0'
p62
sS'priority'
p63
g62
sS'eventStatus'
p64
S'none'
p65
sS'eiMarketContext'
p66
S'http://tempuri.org'
p67
ssS'eiTarget'
p68
(dp69
S'resourceID'
p70
S'ei:resourceID'
p71
sS'partyID'
p72
S'ei:partyID'
p73
sS'groupID'
p74
S'ei:groupID'
p75
sS'venID'
p76
S'ei:venID'
p77
sssS'345435'
p78
(dp79
g3
(dp80
g5
S'PT4H'
p81
sg7
S'PT5H'
p82
sg9
S'PT3H'
p83
sg11
Nsg12
S'PT1H'
p84
sg14
S'2001-12-31T12:00:00'
p85
sg16
S'PT2H'
p86
ssg18
(lp87
(dp88
g21
(lp89
(dp90
g12
S'PT1H'
p91
sg25
S'0.0'
p92
sg27
S'xcal:text'
p93
sasg29
S'0.0'
p94
sg31
S'ei:signalID'
p95
sg33
S'delta'
p96
sg35
S'ei:signalName'
p97
sasg51
(dp98
g53
g78
sg55
S'ei:vtnComment'
p99
sg57
S'2001-12-31T12:00:00'
p100
sg61
S'0'
p101
sg59
S'ei:testEvent'
p102
sg63
g101
sg64
S'none'
p103
sg66
S'http://tempuri.org'
p104
ssg68
(dp105
g70
S'ei:resourceID'
p106
sg72
S'ei:partyID'
p107
sg74
S'ei:groupID'
p108
sg76
S'ei:venID'
p109
sssS'ei:eventID'
p110
(dp111
g3
(dp112
g5
S'PT5H'
p113
sg7
S'PT10H'
p114
sg9
S'PT3H'
p115
sg11
Nsg12
S'PT1H'
p116
sg14
S'2001-12-31T12:00:00'
p117
sg16
S'PT2H'
p118
ssg18
(lp119
(dp120
g21
(lp121
(dp122
g12
S'PT12H'
p123
sg25
S'0.0'
p124
sg27
S'xcal:text'
p125
sasg29
S'0.0'
p126
sg31
S'ei:signalID'
p127
sg33
S'delta'
p128
sg35
S'ei:signalName'
p129
sa(dp130
g21
(lp131
(dp132
g12
S'PT12H'
p133
sg25
S'0.0'
p134
sg27
S'xcal:text'
p135
sa(dp136
g12
S'PT2H'
p137
sg25
S'0.0'
p138
sg27
S'xcal:text1'
p139
sasg29
S'0.0'
p140
sg31
S'ei:signalID'
p141
sg33
S'delta'
p142
sg35
S'ei:signalName'
p143
sasg51
(dp144
g53
S'ei:eventID'
p145
sg55
S'ei:vtnComment'
p146
sg57
S'2001-12-31T12:00:00'
p147
sg59
S'ei:testEvent'
p148
sg61
g62
sg63
g62
sg64
S'none'
p149
sg66
S'http://tempuri.org'
p150
ssg68
(dp151
g70
S'ei:resourceID'
p152
sg72
S'ei:partyID'
p153
sg74
S'ei:groupID'
p154
sg76
S'ei:venID'
p155
sss.