(dp0
S'123'
p1
(dp2
S'eiActivePeriod'
p3
(dp4
S'x_eiRampUp'
p5
S'PT4H'
p6
sS'x_eiRecovery'
p7
S'PT5H'
p8
sS'x_eiNotification'
p9
S'PT3H'
p10
sS'components'
p11
NsS'duration'
p12
S'PT1H'
p13
sS'dtstart'
p14
S'2001-12-31T12:00:00'
p15
sS'tolerance'
p16
S'PT2H'
p17
ssS'eiEventSignals'
p18
(lp19
(dp20
S'intervals'
p21
(lp22
(dp23
g12
S'PT1H'
p24
sS'signalPayload'
p25
S'0.0'
p26
sS'uid'
p27
S'xcal:text'
p28
sasS'currentValue'
p29
S'0.0'
p30
sS'signalID'
p31
S'ei:signalID'
p32
sS'signalType'
p33
S'delta'
p34
sS'signalName'
p35
S'ei:signalName'
p36
sasS'eventDescriptor'
p37
(dp38
S'eventID'
p39
g1
sS'vtnComment'
p40
S'ei:vtnComment'
p41
sS'createdDateTime'
p42
S'2001-12-31T12:00:00'
p43
sS'modificationNumber'
p44
S'0'
p45
sS'testEvent'
p46
S'ei:testEvent'
p47
sS'priority'
p48
g45
sS'eventStatus'
p49
S'none'
p50
sS'eiMarketContext'
p51
S'http://tempuri.org'
p52
ssS'eiTarget'
p53
(dp54
S'resourceID'
p55
S'ei:resourceID'
p56
sS'partyID'
p57
S'ei:partyID'
p58
sS'groupID'
p59
S'ei:groupID'
p60
sS'venID'
p61
S'ei:venID'
p62
sss.