(dp0
S'testVTN_Id'
p1
(dp2
S'profile'
p3
ccopy_reg
_reconstructor
p4
(cenum
EnumValue
p5
c__builtin__
object
p6
Ntp7
Rp8
(dp9
S'_key'
p10
S'A'
p11
sS'_enumtype'
p12
g4
(cenum
Enum
p13
g6
Ntp14
Rp15
(dp16
g11
g8
sS'C'
p17
g4
(g5
g6
Ntp18
Rp19
(dp20
g10
g17
sg12
g15
sS'_index'
p21
I2
sbsS'B'
p22
g4
(g5
g6
Ntp23
Rp24
(dp25
g10
g22
sg12
g15
sg21
I1
sbsS'_keys'
p26
(g11
g22
g17
tp27
sS'_values'
p28
(lp29
g8
ag24
ag19
asbsg21
I0
sbsS'nodeType'
p30
g4
(g5
g6
Ntp31
Rp32
(dp33
g10
S'VTN'
p34
sg12
g4
(g13
g6
Ntp35
Rp36
(dp37
S'VEN'
p38
g4
(g5
g6
Ntp39
Rp40
(dp41
g10
g38
sg12
g36
sg21
I0
sbsg26
(g38
g34
S'VN'
p42
tp43
sg28
(lp44
g40
ag32
ag4
(g5
g6
Ntp45
Rp46
(dp47
g10
g42
sg12
g36
sg21
I2
sbasg42
g46
sg34
g32
sbsg21
I1
sbsS'ipaddr'
p48
S'172.16.11.128'
p49
sS'nodeId'
p50
g1
sS'prefix'
p51
S'rioVTN'
p52
sS'port'
p53
S'9011'
p54
ss.